target datalayout = "e-m:e-p270:32:32-p271:32:32-p272:64:64-i64:64-i128:128-f80:128-n8:16:32:64-S128"
target triple = "x86_64-pc-linux-gnu"

%struct._zval_struct = type { %union._zend_value, %union.anon, %union.anon.2 }
%union._zend_value = type { i64 }
%union.anon = type { i32 }
%union.anon.2 = type { i32 }
%struct._zend_execute_data = type { ptr, ptr, ptr, ptr, %struct._zval_struct, ptr, ptr, ptr, ptr }
%struct.anon.0 = type { i8, i8, %union.anon.1 }
%union.anon.1 = type { i16 }

; Function Attrs: alwaysinline nounwind uwtable
define internal zeroext i8 @zval_get_type(ptr noundef %0) #5 {
  %2 = alloca ptr, align 8
  store ptr %0, ptr %2, align 8, !tbaa !13
  %3 = load ptr, ptr %2, align 8, !tbaa !13
  %4 = getelementptr inbounds nuw %struct._zval_struct, ptr %3, i32 0, i32 1
  %5 = getelementptr inbounds nuw %struct.anon.0, ptr %4, i32 0, i32 0
  %6 = load i8, ptr %5, align 8, !tbaa !17
  ret i8 %6
}

; Function Attrs: alwaysinline nounwind uwtable
define internal zeroext i1 @zend_parse_arg_array(ptr noundef %0, ptr noundef %1, i1 noundef zeroext %2, i1 noundef zeroext %3) #5 {
  %5 = alloca i1, align 1
  %6 = alloca ptr, align 8
  %7 = alloca ptr, align 8
  %8 = alloca i8, align 1
  %9 = alloca i8, align 1
  store ptr %0, ptr %6, align 8, !tbaa !13
  store ptr %1, ptr %7, align 8, !tbaa !31
  %10 = zext i1 %2 to i8
  store i8 %10, ptr %8, align 1, !tbaa !20
  %11 = zext i1 %3 to i8
  store i8 %11, ptr %9, align 1, !tbaa !20
  %12 = load ptr, ptr %6, align 8, !tbaa !13
  %13 = call zeroext i8 @zval_get_type(ptr noundef %12)
  %14 = zext i8 %13 to i32
  %15 = icmp eq i32 %14, 7
  %16 = xor i1 %15, true
  %17 = xor i1 %16, true
  %18 = zext i1 %17 to i32
  %19 = sext i32 %18 to i64
  %20 = call i64 @llvm.expect.i64(i64 %19, i64 1)
  %21 = icmp ne i64 %20, 0
  br i1 %21, label %36, label %22

22:                                               ; preds = %4
  %23 = load i8, ptr %9, align 1, !tbaa !20, !range !22, !noundef !23
  %24 = trunc i8 %23 to i1
  br i1 %24, label %25, label %39

25:                                               ; preds = %22
  %26 = load ptr, ptr %6, align 8, !tbaa !13
  %27 = call zeroext i8 @zval_get_type(ptr noundef %26)
  %28 = zext i8 %27 to i32
  %29 = icmp eq i32 %28, 8
  %30 = xor i1 %29, true
  %31 = xor i1 %30, true
  %32 = zext i1 %31 to i32
  %33 = sext i32 %32 to i64
  %34 = call i64 @llvm.expect.i64(i64 %33, i64 1)
  %35 = icmp ne i64 %34, 0
  br i1 %35, label %36, label %39

36:                                               ; preds = %25, %4
  %37 = load ptr, ptr %6, align 8, !tbaa !13
  %38 = load ptr, ptr %7, align 8, !tbaa !31
  store ptr %37, ptr %38, align 8, !tbaa !13
  br label %57

39:                                               ; preds = %25, %22
  %40 = load i8, ptr %8, align 1, !tbaa !20, !range !22, !noundef !23
  %41 = trunc i8 %40 to i1
  br i1 %41, label %42, label %55

42:                                               ; preds = %39
  %43 = load ptr, ptr %6, align 8, !tbaa !13
  %44 = call zeroext i8 @zval_get_type(ptr noundef %43)
  %45 = zext i8 %44 to i32
  %46 = icmp eq i32 %45, 1
  %47 = xor i1 %46, true
  %48 = xor i1 %47, true
  %49 = zext i1 %48 to i32
  %50 = sext i32 %49 to i64
  %51 = call i64 @llvm.expect.i64(i64 %50, i64 1)
  %52 = icmp ne i64 %51, 0
  br i1 %52, label %53, label %55

53:                                               ; preds = %42
  %54 = load ptr, ptr %7, align 8, !tbaa !31
  store ptr null, ptr %54, align 8, !tbaa !13
  br label %56

55:                                               ; preds = %42, %39
  store i1 false, ptr %5, align 1
  br label %58

56:                                               ; preds = %53
  br label %57

57:                                               ; preds = %56, %36
  store i1 true, ptr %5, align 1
  br label %58

58:                                               ; preds = %57, %55
  %59 = load i1, ptr %5, align 1
  ret i1 %59
}

; Function Attrs: nounwind uwtable
define hidden void @zif_array_key_last(ptr noundef %0, ptr noundef %1) #0 {
  %3 = alloca ptr, align 8
  %4 = alloca ptr, align 8
  %5 = alloca ptr, align 8
  %6 = alloca i32, align 4
  %7 = alloca i32, align 4
  %8 = alloca i32, align 4
  %9 = alloca i32, align 4
  %10 = alloca i32, align 4
  %11 = alloca i32, align 4
  %12 = alloca ptr, align 8
  %13 = alloca ptr, align 8
  %14 = alloca i32, align 4
  %15 = alloca ptr, align 8
  %16 = alloca i8, align 1
  %17 = alloca i8, align 1
  %18 = alloca i32, align 4
  %19 = alloca i32, align 4
  %20 = alloca ptr, align 8
  store ptr %0, ptr %3, align 8, !tbaa !11
  store ptr %1, ptr %4, align 8, !tbaa !13
  call void @llvm.lifetime.start.p0(i64 8, ptr %5) #17
  call void @llvm.lifetime.start.p0(i64 4, ptr %6) #17
  br label %21

21:                                               ; preds = %2
  call void @llvm.lifetime.start.p0(i64 4, ptr %7) #17
  store i32 0, ptr %7, align 4, !tbaa !4
  call void @llvm.lifetime.start.p0(i64 4, ptr %8) #17
  store i32 1, ptr %8, align 4, !tbaa !4
  call void @llvm.lifetime.start.p0(i64 4, ptr %9) #17
  store i32 1, ptr %9, align 4, !tbaa !4
  call void @llvm.lifetime.start.p0(i64 4, ptr %10) #17
  %22 = load ptr, ptr %3, align 8, !tbaa !11
  %23 = getelementptr inbounds nuw %struct._zend_execute_data, ptr %22, i32 0, i32 4
  %24 = getelementptr inbounds nuw %struct._zval_struct, ptr %23, i32 0, i32 2
  %25 = load i32, ptr %24, align 4, !tbaa !17
  store i32 %25, ptr %10, align 4, !tbaa !4
  call void @llvm.lifetime.start.p0(i64 4, ptr %11) #17
  store i32 0, ptr %11, align 4, !tbaa !4
  call void @llvm.lifetime.start.p0(i64 8, ptr %12) #17
  call void @llvm.lifetime.start.p0(i64 8, ptr %13) #17
  store ptr null, ptr %13, align 8, !tbaa !13
  call void @llvm.lifetime.start.p0(i64 4, ptr %14) #17
  store i32 0, ptr %14, align 4, !tbaa !4
  call void @llvm.lifetime.start.p0(i64 8, ptr %15) #17
  store ptr null, ptr %15, align 8, !tbaa !18
  call void @llvm.lifetime.start.p0(i64 1, ptr %16) #17
  store i8 0, ptr %16, align 1, !tbaa !20
  call void @llvm.lifetime.start.p0(i64 1, ptr %17) #17
  store i8 0, ptr %17, align 1, !tbaa !20
  call void @llvm.lifetime.start.p0(i64 4, ptr %18) #17
  store i32 0, ptr %18, align 4, !tbaa !4
  br label %26

26:                                               ; preds = %21
  %27 = load i32, ptr %10, align 4, !tbaa !4
  %28 = load i32, ptr %8, align 4, !tbaa !4
  %29 = icmp ult i32 %27, %28
  %30 = xor i1 %29, true
  %31 = xor i1 %30, true
  %32 = zext i1 %31 to i32
  %33 = sext i32 %32 to i64
  %34 = call i64 @llvm.expect.i64(i64 %33, i64 0)
  %35 = icmp ne i64 %34, 0
  br i1 %35, label %46, label %36

36:                                               ; preds = %26
  %37 = load i32, ptr %10, align 4, !tbaa !4
  %38 = load i32, ptr %9, align 4, !tbaa !4
  %39 = icmp ugt i32 %37, %38
  %40 = xor i1 %39, true
  %41 = xor i1 %40, true
  %42 = zext i1 %41 to i32
  %43 = sext i32 %42 to i64
  %44 = call i64 @llvm.expect.i64(i64 %43, i64 0)
  %45 = icmp ne i64 %44, 0
  br i1 %45, label %46, label %49

46:                                               ; preds = %36, %26
  %47 = load i32, ptr %8, align 4, !tbaa !4
  %48 = load i32, ptr %9, align 4, !tbaa !4
  call void @zend_wrong_parameters_count_error(i32 noundef %47, i32 noundef %48)
  store i32 1, ptr %18, align 4, !tbaa !4
  br label %112

49:                                               ; preds = %36
  %50 = load ptr, ptr %3, align 8, !tbaa !11
  %51 = getelementptr inbounds %struct._zval_struct, ptr %50, i64 4
  store ptr %51, ptr %12, align 8, !tbaa !13
  %52 = load i32, ptr %11, align 4, !tbaa !4
  %53 = add i32 %52, 1
  store i32 %53, ptr %11, align 4, !tbaa !4
  %54 = load i32, ptr %11, align 4, !tbaa !4
  %55 = load i32, ptr %8, align 4, !tbaa !4
  %56 = icmp ule i32 %54, %55
  br i1 %56, label %62, label %57

57:                                               ; preds = %49
  %58 = load i8, ptr %17, align 1, !tbaa !20, !range !22, !noundef !23
  %59 = trunc i8 %58 to i1
  %60 = zext i1 %59 to i32
  %61 = icmp eq i32 %60, 1
  br label %62

62:                                               ; preds = %57, %49
  %63 = phi i1 [ true, %49 ], [ %61, %57 ]
  call void @llvm.assume(i1 %63)
  %64 = load i32, ptr %11, align 4, !tbaa !4
  %65 = load i32, ptr %8, align 4, !tbaa !4
  %66 = icmp ugt i32 %64, %65
  br i1 %66, label %72, label %67

67:                                               ; preds = %62
  %68 = load i8, ptr %17, align 1, !tbaa !20, !range !22, !noundef !23
  %69 = trunc i8 %68 to i1
  %70 = zext i1 %69 to i32
  %71 = icmp eq i32 %70, 0
  br label %72

72:                                               ; preds = %67, %62
  %73 = phi i1 [ true, %62 ], [ %71, %67 ]
  call void @llvm.assume(i1 %73)
  %74 = load i8, ptr %17, align 1, !tbaa !20, !range !22, !noundef !23
  %75 = trunc i8 %74 to i1
  br i1 %75, label %76, label %88

76:                                               ; preds = %72
  %77 = load i32, ptr %11, align 4, !tbaa !4
  %78 = load i32, ptr %10, align 4, !tbaa !4
  %79 = icmp ugt i32 %77, %78
  %80 = xor i1 %79, true
  %81 = xor i1 %80, true
  %82 = zext i1 %81 to i32
  %83 = sext i32 %82 to i64
  %84 = call i64 @llvm.expect.i64(i64 %83, i64 0)
  %85 = icmp ne i64 %84, 0
  br i1 %85, label %86, label %87

86:                                               ; preds = %76
  br label %112

87:                                               ; preds = %76
  br label %88

88:                                               ; preds = %87, %72
  %89 = load ptr, ptr %12, align 8, !tbaa !13
  %90 = getelementptr inbounds nuw %struct._zval_struct, ptr %89, i32 1
  store ptr %90, ptr %12, align 8, !tbaa !13
  %91 = load ptr, ptr %12, align 8, !tbaa !13
  store ptr %91, ptr %13, align 8, !tbaa !13
  %92 = load ptr, ptr %13, align 8, !tbaa !13
  %93 = call zeroext i1 @zend_parse_arg_array(ptr noundef %92, ptr noundef %5, i1 noundef zeroext false, i1 noundef zeroext false)
  %94 = xor i1 %93, true
  %95 = xor i1 %94, true
  %96 = xor i1 %95, true
  %97 = zext i1 %96 to i32
  %98 = sext i32 %97 to i64
  %99 = call i64 @llvm.expect.i64(i64 %98, i64 0)
  %100 = icmp ne i64 %99, 0
  br i1 %100, label %101, label %102

101:                                              ; preds = %88
  store i32 6, ptr %14, align 4, !tbaa !4
  store i32 9, ptr %18, align 4, !tbaa !4
  br label %112

102:                                              ; preds = %88
  %103 = load i32, ptr %11, align 4, !tbaa !4
  %104 = load i32, ptr %9, align 4, !tbaa !4
  %105 = icmp eq i32 %103, %104
  br i1 %105, label %109, label %106

106:                                              ; preds = %102
  %107 = load i32, ptr %9, align 4, !tbaa !4
  %108 = icmp eq i32 %107, -1
  br label %109

109:                                              ; preds = %106, %102
  %110 = phi i1 [ true, %102 ], [ %108, %106 ]
  call void @llvm.assume(i1 %110)
  br label %111

111:                                              ; preds = %109
  br label %112

112:                                              ; preds = %111, %101, %86, %46
  %113 = load i32, ptr %18, align 4, !tbaa !4
  %114 = icmp ne i32 %113, 0
  %115 = xor i1 %114, true
  %116 = xor i1 %115, true
  %117 = zext i1 %116 to i32
  %118 = sext i32 %117 to i64
  %119 = call i64 @llvm.expect.i64(i64 %118, i64 0)
  %120 = icmp ne i64 %119, 0
  br i1 %120, label %121, label %127

121:                                              ; preds = %112
  %122 = load i32, ptr %18, align 4, !tbaa !4
  %123 = load i32, ptr %11, align 4, !tbaa !4
  %124 = load ptr, ptr %15, align 8, !tbaa !18
  %125 = load i32, ptr %14, align 4, !tbaa !4
  %126 = load ptr, ptr %13, align 8, !tbaa !13
  call void @zend_wrong_parameter_error(i32 noundef %122, i32 noundef %123, ptr noundef %124, i32 noundef %125, ptr noundef %126)
  store i32 1, ptr %19, align 4
  br label %128

127:                                              ; preds = %112
  store i32 0, ptr %19, align 4
  br label %128

128:                                              ; preds = %127, %121
  call void @llvm.lifetime.end.p0(i64 4, ptr %18) #17
  call void @llvm.lifetime.end.p0(i64 1, ptr %17) #17
  call void @llvm.lifetime.end.p0(i64 1, ptr %16) #17
  call void @llvm.lifetime.end.p0(i64 8, ptr %15) #17
  call void @llvm.lifetime.end.p0(i64 4, ptr %14) #17
  call void @llvm.lifetime.end.p0(i64 8, ptr %13) #17
  call void @llvm.lifetime.end.p0(i64 8, ptr %12) #17
  call void @llvm.lifetime.end.p0(i64 4, ptr %11) #17
  call void @llvm.lifetime.end.p0(i64 4, ptr %10) #17
  call void @llvm.lifetime.end.p0(i64 4, ptr %9) #17
  call void @llvm.lifetime.end.p0(i64 4, ptr %8) #17
  call void @llvm.lifetime.end.p0(i64 4, ptr %7) #17
  %129 = load i32, ptr %19, align 4
  switch i32 %129, label %139 [
    i32 0, label %130
  ]

130:                                              ; preds = %128
  br label %131

131:                                              ; preds = %130
  br label %132

132:                                              ; preds = %131
  call void @llvm.lifetime.start.p0(i64 8, ptr %20) #17
  %133 = load ptr, ptr %5, align 8, !tbaa !13
  %134 = getelementptr inbounds nuw %struct._zval_struct, ptr %133, i32 0, i32 0
  %135 = load ptr, ptr %134, align 8, !tbaa !17
  store ptr %135, ptr %20, align 8, !tbaa !24
  %136 = load ptr, ptr %20, align 8, !tbaa !24
  call void @zend_hash_internal_pointer_end_ex(ptr noundef %136, ptr noundef %6)
  %137 = load ptr, ptr %20, align 8, !tbaa !24
  %138 = load ptr, ptr %4, align 8, !tbaa !13
  call void @zend_hash_get_current_key_zval_ex(ptr noundef %137, ptr noundef %138, ptr noundef %6)
  call void @llvm.lifetime.end.p0(i64 8, ptr %20) #17
  store i32 0, ptr %19, align 4
  br label %139

139:                                              ; preds = %132, %128
  call void @llvm.lifetime.end.p0(i64 4, ptr %6) #17
  call void @llvm.lifetime.end.p0(i64 8, ptr %5) #17
  %140 = load i32, ptr %19, align 4
  switch i32 %140, label %142 [
    i32 0, label %141
    i32 1, label %141
  ]

141:                                              ; preds = %139, %139
  ret void

142:                                              ; preds = %139
  unreachable
}